; Function Attrs: mustprogress nofree norecurse nosync nounwind willreturn memory(readwrite, inaccessiblemem: none) uwtable
define hidden void @_ZNK10polynomial7manager7factorsixEj(ptr noalias nocapture writeonly sret(%class.obj_ref) align 8 %agg.result, ptr nocapture noundef nonnull readonly align 8 dereferenceable(44) %this, i32 noundef %i) local_unnamed_addr #11 align 2 {
entry:
  %0 = load ptr, ptr %this, align 8
  %idxprom.i = zext i32 %i to i64
  %arrayidx.i = getelementptr inbounds ptr, ptr %0, i64 %idxprom.i
  %1 = load ptr, ptr %arrayidx.i, align 8
  %m_manager.i = getelementptr inbounds i8, ptr %this, i64 16
  %2 = load ptr, ptr %m_manager.i, align 8
  store ptr %1, ptr %agg.result, align 8
  %m_manager.i1 = getelementptr inbounds i8, ptr %agg.result, i64 8
  store ptr %2, ptr %m_manager.i1, align 8
  %tobool.not.i.i = icmp eq ptr %1, null
  br i1 %tobool.not.i.i, label %_ZN7obj_refIN10polynomial10polynomialENS0_7managerEEC2EPS1_RS2_.exit, label %_ZN10polynomial7manager7inc_refEPNS_10polynomialE.exit.i.i

_ZN10polynomial7manager7inc_refEPNS_10polynomialE.exit.i.i: ; preds = %entry
  %3 = load i32, ptr %1, align 8
  %inc.i.i.i.i = add i32 %3, 1
  store i32 %inc.i.i.i.i, ptr %1, align 8
  br label %_ZN7obj_refIN10polynomial10polynomialENS0_7managerEEC2EPS1_RS2_.exit

_ZN7obj_refIN10polynomial10polynomialENS0_7managerEEC2EPS1_RS2_.exit: ; preds = %entry, %_ZN10polynomial7manager7inc_refEPNS_10polynomialE.exit.i.i
  ret void
}